target datalayout = "e-m:e-p270:32:32-p271:32:32-p272:64:64-i64:64-i128:128-f80:128-n8:16:32:64-S128"
target triple = "x86_64-pc-linux-gnu"

%struct.dirent = type { i64, i64, i16, i8, [256 x i8] }
%struct.stat = type { i64, i64, i64, i32, i32, i32, i32, i64, i64, i64, i64, %struct.timespec, %struct.timespec, %struct.timespec, [3 x i64] }
%struct.timespec = type { i64, i64 }

@.str.1 = private unnamed_addr constant [9 x i8] c"dbsize.c\00", align 1
@MyDatabaseTableSpace = external global i32, align 4
@.str.10 = private unnamed_addr constant [10 x i8] c"pg_tblspc\00", align 1
@InterruptPending = external global i32, align 4
@.str.11 = private unnamed_addr constant [2 x i8] c".\00", align 1
@.str.12 = private unnamed_addr constant [3 x i8] c"..\00", align 1
@.str.14 = private unnamed_addr constant [16 x i8] c"PG_18_202502112\00", align 1
@.str.15 = private unnamed_addr constant [6 x i8] c"%s/%s\00", align 1
@.str.16 = private unnamed_addr constant [29 x i8] c"could not stat file \22%s\22: %m\00", align 1
@.str.17 = private unnamed_addr constant [5 x i8] c"base\00", align 1
@.str.18 = private unnamed_addr constant [7 x i8] c"global\00", align 1
@.str.19 = private unnamed_addr constant [9 x i8] c"%s/%u/%s\00", align 1
@__func__.calculate_tablespace_size = private unnamed_addr constant [26 x i8] c"calculate_tablespace_size\00", align 1

; Function Attrs: nounwind uwtable
define internal i64 @calculate_tablespace_size(i32 noundef %0) #0 {
  %2 = alloca i64, align 8
  %3 = alloca i32, align 4
  %4 = alloca [1024 x i8], align 16
  %5 = alloca [2048 x i8], align 16
  %6 = alloca i64, align 8
  %7 = alloca ptr, align 8
  %8 = alloca ptr, align 8
  %9 = alloca i32, align 4
  %10 = alloca i32, align 4
  %11 = alloca %struct.stat, align 8
  store i32 %0, ptr %3, align 4
  call void @llvm.lifetime.start.p0(i64 1024, ptr %4) #10
  call void @llvm.lifetime.start.p0(i64 2048, ptr %5) #10
  call void @llvm.lifetime.start.p0(i64 8, ptr %6) #10
  store i64 0, ptr %6, align 8
  call void @llvm.lifetime.start.p0(i64 8, ptr %7) #10
  call void @llvm.lifetime.start.p0(i64 8, ptr %8) #10
  call void @llvm.lifetime.start.p0(i64 4, ptr %9) #10
  %12 = load i32, ptr %3, align 4
  %13 = load i32, ptr @MyDatabaseTableSpace, align 4
  %14 = icmp ne i32 %12, %13
  br i1 %14, label %15, label %29

15:                                               ; preds = %1
  %16 = call i32 @GetUserId()
  %17 = call zeroext i1 @has_privs_of_role(i32 noundef %16, i32 noundef 3375)
  br i1 %17, label %29, label %18

18:                                               ; preds = %15
  %19 = load i32, ptr %3, align 4
  %20 = call i32 @GetUserId()
  %21 = call i32 @object_aclcheck(i32 noundef 1213, i32 noundef %19, i32 noundef %20, i64 noundef 512)
  store i32 %21, ptr %9, align 4
  %22 = load i32, ptr %9, align 4
  %23 = icmp ne i32 %22, 0
  br i1 %23, label %24, label %28

24:                                               ; preds = %18
  %25 = load i32, ptr %9, align 4
  %26 = load i32, ptr %3, align 4
  %27 = call ptr @get_tablespace_name(i32 noundef %26)
  call void @aclcheck_error(i32 noundef %25, i32 noundef 42, ptr noundef %27)
  br label %28

28:                                               ; preds = %24, %18
  br label %29

29:                                               ; preds = %28, %15, %1
  %30 = load i32, ptr %3, align 4
  %31 = icmp eq i32 %30, 1663
  br i1 %31, label %32, label %35

32:                                               ; preds = %29
  %33 = getelementptr inbounds [1024 x i8], ptr %4, i64 0, i64 0
  %34 = call i32 (ptr, i64, ptr, ...) @pg_snprintf(ptr noundef %33, i64 noundef 1024, ptr noundef @.str.17)
  br label %46

35:                                               ; preds = %29
  %36 = load i32, ptr %3, align 4
  %37 = icmp eq i32 %36, 1664
  br i1 %37, label %38, label %41

38:                                               ; preds = %35
  %39 = getelementptr inbounds [1024 x i8], ptr %4, i64 0, i64 0
  %40 = call i32 (ptr, i64, ptr, ...) @pg_snprintf(ptr noundef %39, i64 noundef 1024, ptr noundef @.str.18)
  br label %45

41:                                               ; preds = %35
  %42 = getelementptr inbounds [1024 x i8], ptr %4, i64 0, i64 0
  %43 = load i32, ptr %3, align 4
  %44 = call i32 (ptr, i64, ptr, ...) @pg_snprintf(ptr noundef %42, i64 noundef 1024, ptr noundef @.str.19, ptr noundef @.str.10, i32 noundef %43, ptr noundef @.str.14)
  br label %45

45:                                               ; preds = %41, %38
  br label %46

46:                                               ; preds = %45, %32
  %47 = getelementptr inbounds [1024 x i8], ptr %4, i64 0, i64 0
  %48 = call ptr @AllocateDir(ptr noundef %47)
  store ptr %48, ptr %7, align 8
  %49 = load ptr, ptr %7, align 8
  %50 = icmp ne ptr %49, null
  br i1 %50, label %52, label %51

51:                                               ; preds = %46
  store i64 -1, ptr %2, align 8
  store i32 1, ptr %10, align 4
  br label %133

52:                                               ; preds = %46
  br label %53

53:                                               ; preds = %128, %126, %52
  %54 = load ptr, ptr %7, align 8
  %55 = getelementptr inbounds [1024 x i8], ptr %4, i64 0, i64 0
  %56 = call ptr @ReadDir(ptr noundef %54, ptr noundef %55)
  store ptr %56, ptr %8, align 8
  %57 = icmp ne ptr %56, null
  br i1 %57, label %58, label %129

58:                                               ; preds = %53
  call void @llvm.lifetime.start.p0(i64 144, ptr %11) #10
  br label %59

59:                                               ; preds = %58
  %60 = load volatile i32, ptr @InterruptPending, align 4
  %61 = icmp ne i32 %60, 0
  %62 = zext i1 %61 to i32
  %63 = sext i32 %62 to i64
  %64 = call i64 @llvm.expect.i64(i64 %63, i64 0)
  %65 = icmp ne i64 %64, 0
  br i1 %65, label %66, label %67

66:                                               ; preds = %59
  call void @ProcessInterrupts()
  br label %67

67:                                               ; preds = %66, %59
  br label %68

68:                                               ; preds = %67
  br label %69

69:                                               ; preds = %68
  %70 = load ptr, ptr %8, align 8
  %71 = getelementptr inbounds nuw %struct.dirent, ptr %70, i32 0, i32 4
  %72 = getelementptr inbounds [256 x i8], ptr %71, i64 0, i64 0
  %73 = call i32 @strcmp(ptr noundef %72, ptr noundef @.str.11) #12
  %74 = icmp eq i32 %73, 0
  br i1 %74, label %81, label %75

75:                                               ; preds = %69
  %76 = load ptr, ptr %8, align 8
  %77 = getelementptr inbounds nuw %struct.dirent, ptr %76, i32 0, i32 4
  %78 = getelementptr inbounds [256 x i8], ptr %77, i64 0, i64 0
  %79 = call i32 @strcmp(ptr noundef %78, ptr noundef @.str.12) #12
  %80 = icmp eq i32 %79, 0
  br i1 %80, label %81, label %82

81:                                               ; preds = %75, %69
  store i32 2, ptr %10, align 4
  br label %126, !llvm.loop !6

82:                                               ; preds = %75
  %83 = getelementptr inbounds [2048 x i8], ptr %5, i64 0, i64 0
  %84 = getelementptr inbounds [1024 x i8], ptr %4, i64 0, i64 0
  %85 = load ptr, ptr %8, align 8
  %86 = getelementptr inbounds nuw %struct.dirent, ptr %85, i32 0, i32 4
  %87 = getelementptr inbounds [256 x i8], ptr %86, i64 0, i64 0
  %88 = call i32 (ptr, i64, ptr, ...) @pg_snprintf(ptr noundef %83, i64 noundef 2048, ptr noundef @.str.15, ptr noundef %84, ptr noundef %87)
  %89 = getelementptr inbounds [2048 x i8], ptr %5, i64 0, i64 0
  %90 = call i32 @stat(ptr noundef %89, ptr noundef %11) #10
  %91 = icmp slt i32 %90, 0
  br i1 %91, label %92, label %111

92:                                               ; preds = %82
  %93 = call ptr @__errno_location() #13
  %94 = load i32, ptr %93, align 4
  %95 = icmp eq i32 %94, 2
  br i1 %95, label %96, label %97

96:                                               ; preds = %92
  store i32 2, ptr %10, align 4
  br label %126, !llvm.loop !6

97:                                               ; preds = %92
  br label %98

98:                                               ; preds = %97
  br i1 true, label %99, label %101

99:                                               ; preds = %98
  %100 = call zeroext i1 @errstart_cold(i32 noundef 21, ptr noundef null) #11
  br i1 %100, label %103, label %107

101:                                              ; preds = %98
  %102 = call zeroext i1 @errstart(i32 noundef 21, ptr noundef null)
  br i1 %102, label %103, label %107

103:                                              ; preds = %101, %99
  %104 = call i32 @errcode_for_file_access()
  %105 = getelementptr inbounds [2048 x i8], ptr %5, i64 0, i64 0
  %106 = call i32 (ptr, ...) @errmsg(ptr noundef @.str.16, ptr noundef %105)
  call void @errfinish(ptr noundef @.str.1, i32 noundef 266, ptr noundef @__func__.calculate_tablespace_size)
  br label %107

107:                                              ; preds = %103, %101, %99
  unreachable

108:                                              ; No predecessors!
  br label %109

109:                                              ; preds = %108
  br label %110

110:                                              ; preds = %109
  br label %111

111:                                              ; preds = %110, %82
  %112 = getelementptr inbounds nuw %struct.stat, ptr %11, i32 0, i32 3
  %113 = load i32, ptr %112, align 8
  %114 = and i32 %113, 61440
  %115 = icmp eq i32 %114, 16384
  br i1 %115, label %116, label %121

116:                                              ; preds = %111
  %117 = getelementptr inbounds [2048 x i8], ptr %5, i64 0, i64 0
  %118 = call i64 @db_dir_size(ptr noundef %117)
  %119 = load i64, ptr %6, align 8
  %120 = add i64 %119, %118
  store i64 %120, ptr %6, align 8
  br label %121

121:                                              ; preds = %116, %111
  %122 = getelementptr inbounds nuw %struct.stat, ptr %11, i32 0, i32 8
  %123 = load i64, ptr %122, align 8
  %124 = load i64, ptr %6, align 8
  %125 = add i64 %124, %123
  store i64 %125, ptr %6, align 8
  store i32 0, ptr %10, align 4
  br label %126

126:                                              ; preds = %121, %96, %81
  call void @llvm.lifetime.end.p0(i64 144, ptr %11) #10
  %127 = load i32, ptr %10, align 4
  switch i32 %127, label %135 [
    i32 0, label %128
    i32 2, label %53
  ]

128:                                              ; preds = %126
  br label %53, !llvm.loop !6

129:                                              ; preds = %53
  %130 = load ptr, ptr %7, align 8
  %131 = call i32 @FreeDir(ptr noundef %130)
  %132 = load i64, ptr %6, align 8
  store i64 %132, ptr %2, align 8
  store i32 1, ptr %10, align 4
  br label %133

133:                                              ; preds = %129, %51
  call void @llvm.lifetime.end.p0(i64 4, ptr %9) #10
  call void @llvm.lifetime.end.p0(i64 8, ptr %8) #10
  call void @llvm.lifetime.end.p0(i64 8, ptr %7) #10
  call void @llvm.lifetime.end.p0(i64 8, ptr %6) #10
  call void @llvm.lifetime.end.p0(i64 2048, ptr %5) #10
  call void @llvm.lifetime.end.p0(i64 1024, ptr %4) #10
  %134 = load i64, ptr %2, align 8
  ret i64 %134

135:                                              ; preds = %126
  unreachable
}