; Function Attrs: nounwind uwtable
define internal fastcc i64 @calculate_tablespace_size(i32 noundef %0) unnamed_addr #0 {
  %2 = alloca [1024 x i8], align 16
  %3 = alloca [2048 x i8], align 16
  %4 = alloca %struct.stat, align 8
  call void @llvm.lifetime.start.p0(i64 1024, ptr nonnull %2) #9
  call void @llvm.lifetime.start.p0(i64 2048, ptr nonnull %3) #9
  %5 = load i32, ptr @MyDatabaseTableSpace, align 4
  %.not = icmp eq i32 %0, %5
  br i1 %.not, label %14, label %6

6:                                                ; preds = %1
  %7 = tail call i32 @GetUserId() #9
  %8 = tail call zeroext i1 @has_privs_of_role(i32 noundef %7, i32 noundef 3375) #9
  br i1 %8, label %14, label %9

9:                                                ; preds = %6
  %10 = tail call i32 @GetUserId() #9
  %11 = tail call i32 @object_aclcheck(i32 noundef 1213, i32 noundef %0, i32 noundef %10, i64 noundef 512) #9
  %.not22 = icmp eq i32 %11, 0
  br i1 %.not22, label %14, label %12

12:                                               ; preds = %9
  %13 = tail call ptr @get_tablespace_name(i32 noundef %0) #9
  tail call void @aclcheck_error(i32 noundef %11, i32 noundef 42, ptr noundef %13) #9
  br label %14

14:                                               ; preds = %9, %12, %6, %1
  switch i32 %0, label %19 [
    i32 1663, label %15
    i32 1664, label %17
  ]

15:                                               ; preds = %14
  %16 = call i32 (ptr, i64, ptr, ...) @pg_snprintf(ptr noundef nonnull %2, i64 noundef 1024, ptr noundef nonnull @.str.17) #9
  br label %21

17:                                               ; preds = %14
  %18 = call i32 (ptr, i64, ptr, ...) @pg_snprintf(ptr noundef nonnull %2, i64 noundef 1024, ptr noundef nonnull @.str.18) #9
  br label %21

19:                                               ; preds = %14
  %20 = call i32 (ptr, i64, ptr, ...) @pg_snprintf(ptr noundef nonnull %2, i64 noundef 1024, ptr noundef nonnull @.str.19, ptr noundef nonnull @.str.10, i32 noundef %0, ptr noundef nonnull @.str.14) #9
  br label %21

21:                                               ; preds = %17, %19, %15
  %22 = call ptr @AllocateDir(ptr noundef nonnull %2) #9
  %.not23 = icmp eq ptr %22, null
  br i1 %.not23, label %64, label %.preheader

.preheader:                                       ; preds = %21
  %23 = call ptr @ReadDir(ptr noundef nonnull %22, ptr noundef nonnull %2) #9
  %.not2431 = icmp eq ptr %23, null
  br i1 %.not2431, label %._crit_edge, label %.lr.ph

.lr.ph:                                           ; preds = %.preheader
  %24 = getelementptr inbounds nuw i8, ptr %4, i64 24
  %25 = getelementptr inbounds nuw i8, ptr %4, i64 48
  br label %26

26:                                               ; preds = %.lr.ph, %61
  %27 = phi ptr [ %23, %.lr.ph ], [ %62, %61 ]
  %.01732 = phi i64 [ 0, %.lr.ph ], [ %.1, %61 ]
  call void @llvm.lifetime.start.p0(i64 144, ptr nonnull %4) #9
  %28 = load volatile i32, ptr @InterruptPending, align 4
  %.not25 = icmp eq i32 %28, 0
  br i1 %.not25, label %sub_0, label %29, !prof !4

29:                                               ; preds = %26
  call void @ProcessInterrupts() #9
  br label %sub_0

sub_0:                                            ; preds = %29, %26
  %30 = getelementptr inbounds nuw i8, ptr %27, i64 19
  %31 = load i8, ptr %30, align 1
  %.not33 = icmp eq i8 %31, 46
  br i1 %.not33, label %.tail, label %.tail26.thread

.tail:                                            ; preds = %sub_0
  %32 = getelementptr inbounds nuw i8, ptr %27, i64 20
  %33 = load i8, ptr %32, align 1
  %34 = icmp eq i8 %33, 0
  br i1 %34, label %61, label %sub_128, !llvm.loop !7

sub_128:                                          ; preds = %.tail
  %35 = getelementptr inbounds nuw i8, ptr %27, i64 20
  %36 = load i8, ptr %35, align 1
  %.not35 = icmp eq i8 %36, 46
  br i1 %.not35, label %.tail26, label %.tail26.thread

.tail26:                                          ; preds = %sub_128
  %37 = getelementptr inbounds nuw i8, ptr %27, i64 21
  %38 = load i8, ptr %37, align 1
  %39 = icmp eq i8 %38, 0
  br i1 %39, label %61, label %.tail26.thread, !llvm.loop !7

.tail26.thread:                                   ; preds = %sub_0, %sub_128, %.tail26
  %40 = call i32 (ptr, i64, ptr, ...) @pg_snprintf(ptr noundef nonnull %3, i64 noundef 2048, ptr noundef nonnull @.str.15, ptr noundef nonnull %2, ptr noundef nonnull %30) #9
  %41 = call i32 @stat(ptr noundef nonnull %3, ptr noundef nonnull %4) #9
  %42 = icmp slt i32 %41, 0
  br i1 %42, label %43, label %51

43:                                               ; preds = %.tail26.thread
  %44 = tail call ptr @__errno_location() #11
  %45 = load i32, ptr %44, align 4
  %46 = icmp eq i32 %45, 2
  br i1 %46, label %61, label %47, !llvm.loop !7

47:                                               ; preds = %43
  %48 = call zeroext i1 @errstart_cold(i32 noundef 21, ptr noundef null) #10
  call void @llvm.assume(i1 %48)
  %49 = call i32 @errcode_for_file_access() #9
  %50 = call i32 (ptr, ...) @errmsg(ptr noundef nonnull @.str.16, ptr noundef nonnull %3) #9
  call void @errfinish(ptr noundef nonnull @.str.1, i32 noundef 266, ptr noundef nonnull @__func__.calculate_tablespace_size) #9
  unreachable

51:                                               ; preds = %.tail26.thread
  %52 = load i32, ptr %24, align 8
  %53 = and i32 %52, 61440
  %54 = icmp eq i32 %53, 16384
  br i1 %54, label %55, label %58

55:                                               ; preds = %51
  %56 = call fastcc i64 @db_dir_size(ptr noundef %3)
  %57 = add i64 %56, %.01732
  br label %58

58:                                               ; preds = %55, %51
  %.2 = phi i64 [ %57, %55 ], [ %.01732, %51 ]
  %59 = load i64, ptr %25, align 8
  %60 = add i64 %59, %.2
  br label %61

61:                                               ; preds = %43, %.tail, %.tail26, %58
  %.1 = phi i64 [ %60, %58 ], [ %.01732, %.tail26 ], [ %.01732, %.tail ], [ %.01732, %43 ]
  call void @llvm.lifetime.end.p0(i64 144, ptr nonnull %4) #9
  %62 = call ptr @ReadDir(ptr noundef nonnull %22, ptr noundef nonnull %2) #9
  %.not24 = icmp eq ptr %62, null
  br i1 %.not24, label %._crit_edge, label %26

._crit_edge:                                      ; preds = %61, %.preheader
  %.017.lcssa = phi i64 [ 0, %.preheader ], [ %.1, %61 ]
  %63 = call i32 @FreeDir(ptr noundef nonnull %22) #9
  br label %64

64:                                               ; preds = %21, %._crit_edge
  %.0 = phi i64 [ %.017.lcssa, %._crit_edge ], [ -1, %21 ]
  call void @llvm.lifetime.end.p0(i64 2048, ptr nonnull %3) #9
  call void @llvm.lifetime.end.p0(i64 1024, ptr nonnull %2) #9
  ret i64 %.0
}